target datalayout = "e-m:e-p270:32:32-p271:32:32-p272:64:64-i64:64-i128:128-f80:128-n8:16:32:64-S128"
target triple = "x86_64-pc-linux-gnu"

%struct.AVCodecContext = type { ptr, i32, i32, ptr, i32, i32, ptr, ptr, ptr, i64, i32, i32, ptr, i32, %struct.AVRational, %struct.AVRational, %struct.AVRational, i32, i32, i32, i32, i32, %struct.AVRational, i32, i32, i32, i32, i32, i32, i32, i32, i32, i32, i32, ptr, ptr, i32, float, float, float, float, float, float, float, float, float, i32, i32, i32, i32, i32, i32, i32, i32, i32, i32, i32, i32, ptr, ptr, ptr, i32, i32, i32, i32, i32, i32, i32, i32, i32, i32, %struct.AVChannelLayout, i32, i32, i32, i32, i32, i32, i32, i32, ptr, i32, i32, i32, float, float, i32, i32, i32, i32, i32, ptr, i64, i64, float, float, i32, i32, ptr, ptr, i32, i32, i32, i32, i32, ptr, ptr, ptr, ptr, i32, i32, [8 x i64], i32, i32, i32, i32, i32, i32, i32, ptr, ptr, i32, i32, i32, i32, i32, i32, i32, i32, i32, i32, ptr, ptr, i32, i32, ptr, ptr, ptr, ptr, i32, i32, i64, i32, i32, i64, ptr, i64, ptr, i32, ptr, i32 }
%struct.AVRational = type { i32, i32 }
%struct.AVChannelLayout = type { i32, i32, %union.anon.1, ptr }
%union.anon.1 = type { i64 }
%struct.AV1DecContext = type { ptr, ptr, i32, ptr, %struct.CodedBitstreamFragment, ptr, ptr, ptr, ptr, ptr, ptr, ptr, ptr, ptr, ptr, ptr, %struct.DOVIContext, ptr, i16, i16, i16, i32, [8 x %struct.AV1Frame], %struct.AV1Frame, i32, i32, i32 }
%struct.CodedBitstreamFragment = type { ptr, i64, i64, ptr, i32, i32, ptr }
%struct.DOVIContext = type { ptr, i32, %struct.AVDOVIDecoderConfigurationRecord, %struct.AVDOVIRpuDataHeader, ptr, ptr, ptr, ptr, [16 x ptr], ptr, i32 }
%struct.AVDOVIDecoderConfigurationRecord = type { i8, i8, i8, i8, i8, i8, i8, i8, i8 }
%struct.AVDOVIRpuDataHeader = type { i8, i16, i8, i8, i8, i8, i8, i8, i8, i8, i8, i8, i8, i8, i8, i8, i8 }
%struct.AV1Frame = type { %union.anon.2, ptr, ptr, ptr, i32, i32, [8 x i8], [8 x i8], [8 x [6 x i32]], [2 x i8], %struct.AV1RawFilmGrainParams, i8, i8, [8 x i8], [8 x i8], i8 }
%union.anon.2 = type { %struct.ProgressFrame }
%struct.ProgressFrame = type { ptr, ptr }
%struct.AV1RawFilmGrainParams = type { i8, i16, i8, i8, i8, [14 x i8], [14 x i8], i8, i8, [10 x i8], [10 x i8], i8, [10 x i8], [10 x i8], i8, i8, [24 x i8], [25 x i8], [25 x i8], i8, i8, i8, i8, i16, i8, i8, i16, i8, i8 }
%struct.AV1RawMetadataITUTT35 = type { i8, i8, ptr, ptr, i64 }

; Function Attrs: cold nounwind optsize uwtable
define internal i32 @av1_decode_free(ptr noundef %0) #0 {
  %2 = alloca ptr, align 8
  %3 = alloca ptr, align 8
  %4 = alloca %struct.AV1RawMetadataITUTT35, align 8
  %5 = alloca i32, align 4
  store ptr %0, ptr %2, align 8, !tbaa !4
  call void @llvm.lifetime.start.p0(i64 8, ptr %3) #11
  %6 = load ptr, ptr %2, align 8, !tbaa !4
  %7 = getelementptr inbounds nuw %struct.AVCodecContext, ptr %6, i32 0, i32 6
  %8 = load ptr, ptr %7, align 8, !tbaa !9
  store ptr %8, ptr %3, align 8, !tbaa !29
  call void @llvm.lifetime.start.p0(i64 32, ptr %4) #11
  call void @llvm.lifetime.start.p0(i64 4, ptr %5) #11
  store i32 0, ptr %5, align 4, !tbaa !62
  br label %9

9:                                                ; preds = %20, %1
  %10 = load i32, ptr %5, align 4, !tbaa !62
  %11 = sext i32 %10 to i64
  %12 = icmp ult i64 %11, 8
  br i1 %12, label %14, label %13

13:                                               ; preds = %9
  call void @llvm.lifetime.end.p0(i64 4, ptr %5) #11
  br label %23

14:                                               ; preds = %9
  %15 = load ptr, ptr %3, align 8, !tbaa !29
  %16 = getelementptr inbounds nuw %struct.AV1DecContext, ptr %15, i32 0, i32 22
  %17 = load i32, ptr %5, align 4, !tbaa !62
  %18 = sext i32 %17 to i64
  %19 = getelementptr inbounds [8 x %struct.AV1Frame], ptr %16, i64 0, i64 %18
  call void @av1_frame_unref(ptr noundef %19)
  br label %20

20:                                               ; preds = %14
  %21 = load i32, ptr %5, align 4, !tbaa !62
  %22 = add nsw i32 %21, 1
  store i32 %22, ptr %5, align 4, !tbaa !62
  br label %9, !llvm.loop !90

23:                                               ; preds = %13
  %24 = load ptr, ptr %3, align 8, !tbaa !29
  %25 = getelementptr inbounds nuw %struct.AV1DecContext, ptr %24, i32 0, i32 23
  call void @av1_frame_unref(ptr noundef %25)
  %26 = load ptr, ptr %3, align 8, !tbaa !29
  %27 = getelementptr inbounds nuw %struct.AV1DecContext, ptr %26, i32 0, i32 6
  call void @av_buffer_unref(ptr noundef %27)
  %28 = load ptr, ptr %3, align 8, !tbaa !29
  %29 = getelementptr inbounds nuw %struct.AV1DecContext, ptr %28, i32 0, i32 7
  call void @av_refstruct_unref(ptr noundef %29)
  %30 = load ptr, ptr %3, align 8, !tbaa !29
  %31 = getelementptr inbounds nuw %struct.AV1DecContext, ptr %30, i32 0, i32 9
  call void @av_refstruct_unref(ptr noundef %31)
  %32 = load ptr, ptr %3, align 8, !tbaa !29
  %33 = getelementptr inbounds nuw %struct.AV1DecContext, ptr %32, i32 0, i32 12
  call void @av_refstruct_unref(ptr noundef %33)
  %34 = load ptr, ptr %3, align 8, !tbaa !29
  %35 = getelementptr inbounds nuw %struct.AV1DecContext, ptr %34, i32 0, i32 14
  call void @av_refstruct_unref(ptr noundef %35)
  %36 = load ptr, ptr %3, align 8, !tbaa !29
  %37 = getelementptr inbounds nuw %struct.AV1DecContext, ptr %36, i32 0, i32 11
  call void @av_freep(ptr noundef %37)
  br label %38

38:                                               ; preds = %51, %23
  %39 = load ptr, ptr %3, align 8, !tbaa !29
  %40 = getelementptr inbounds nuw %struct.AV1DecContext, ptr %39, i32 0, i32 17
  %41 = load ptr, ptr %40, align 8, !tbaa !68
  %42 = icmp ne ptr %41, null
  br i1 %42, label %43, label %49

43:                                               ; preds = %38
  %44 = load ptr, ptr %3, align 8, !tbaa !29
  %45 = getelementptr inbounds nuw %struct.AV1DecContext, ptr %44, i32 0, i32 17
  %46 = load ptr, ptr %45, align 8, !tbaa !68
  %47 = call i32 @av_fifo_read(ptr noundef %46, ptr noundef %4, i64 noundef 1)
  %48 = icmp sge i32 %47, 0
  br label %49

49:                                               ; preds = %43, %38
  %50 = phi i1 [ false, %38 ], [ %48, %43 ]
  br i1 %50, label %51, label %53

51:                                               ; preds = %49
  %52 = getelementptr inbounds nuw %struct.AV1RawMetadataITUTT35, ptr %4, i32 0, i32 3
  call void @av_buffer_unref(ptr noundef %52)
  br label %38, !llvm.loop !91

53:                                               ; preds = %49
  %54 = load ptr, ptr %3, align 8, !tbaa !29
  %55 = getelementptr inbounds nuw %struct.AV1DecContext, ptr %54, i32 0, i32 17
  call void @av_fifo_freep2(ptr noundef %55)
  %56 = load ptr, ptr %3, align 8, !tbaa !29
  %57 = getelementptr inbounds nuw %struct.AV1DecContext, ptr %56, i32 0, i32 4
  call void @ff_cbs_fragment_free(ptr noundef %57)
  %58 = load ptr, ptr %3, align 8, !tbaa !29
  %59 = getelementptr inbounds nuw %struct.AV1DecContext, ptr %58, i32 0, i32 3
  call void @ff_cbs_close(ptr noundef %59)
  %60 = load ptr, ptr %3, align 8, !tbaa !29
  %61 = getelementptr inbounds nuw %struct.AV1DecContext, ptr %60, i32 0, i32 16
  call void @ff_dovi_ctx_unref(ptr noundef %61)
  call void @llvm.lifetime.end.p0(i64 32, ptr %4) #11
  call void @llvm.lifetime.end.p0(i64 8, ptr %3) #11
  ret i32 0
}