; Function Attrs: cold nounwind optsize uwtable
define internal noundef i32 @av1_decode_free(ptr noundef readonly captures(none) %0) #0 {
  %2 = alloca %struct.AV1RawMetadataITUTT35, align 8
  %3 = getelementptr inbounds nuw i8, ptr %0, i64 32
  %4 = load ptr, ptr %3, align 8, !tbaa !4
  call void @llvm.lifetime.start.p0(i64 32, ptr nonnull %2) #9
  %5 = getelementptr inbounds nuw i8, ptr %4, i64 416
  br label %17

6:                                                ; preds = %17
  %7 = getelementptr inbounds nuw i8, ptr %4, i64 4000
  tail call fastcc void @av1_frame_unref(ptr noundef nonnull %7)
  %8 = getelementptr inbounds nuw i8, ptr %4, i64 88
  tail call void @av_buffer_unref(ptr noundef nonnull %8) #9
  %9 = getelementptr inbounds nuw i8, ptr %4, i64 96
  tail call void @av_refstruct_unref(ptr noundef nonnull %9) #9
  %10 = getelementptr inbounds nuw i8, ptr %4, i64 112
  tail call void @av_refstruct_unref(ptr noundef nonnull %10) #9
  %11 = getelementptr inbounds nuw i8, ptr %4, i64 136
  tail call void @av_refstruct_unref(ptr noundef nonnull %11) #9
  %12 = getelementptr inbounds nuw i8, ptr %4, i64 152
  tail call void @av_refstruct_unref(ptr noundef nonnull %12) #9
  %13 = getelementptr inbounds nuw i8, ptr %4, i64 128
  tail call void @av_freep(ptr noundef nonnull %13) #9
  %14 = getelementptr inbounds nuw i8, ptr %4, i64 392
  %15 = load ptr, ptr %14, align 8, !tbaa !64
  %.not20 = icmp eq ptr %15, null
  br i1 %.not20, label %.critedge, label %.lr.ph

.lr.ph:                                           ; preds = %6
  %16 = getelementptr inbounds nuw i8, ptr %2, i64 16
  br label %19

17:                                               ; preds = %1, %17
  %indvars.iv = phi i64 [ 0, %1 ], [ %indvars.iv.next, %17 ]
  %18 = getelementptr inbounds nuw [8 x %struct.AV1Frame], ptr %5, i64 0, i64 %indvars.iv
  tail call fastcc void @av1_frame_unref(ptr noundef nonnull %18)
  %indvars.iv.next = add nuw nsw i64 %indvars.iv, 1
  %exitcond.not = icmp eq i64 %indvars.iv.next, 8
  br i1 %exitcond.not, label %6, label %17, !llvm.loop !201

19:                                               ; preds = %.lr.ph, %23
  %20 = phi ptr [ %15, %.lr.ph ], [ %24, %23 ]
  %21 = call i32 @av_fifo_read(ptr noundef nonnull %20, ptr noundef nonnull %2, i64 noundef 1) #9
  %22 = icmp sgt i32 %21, -1
  br i1 %22, label %23, label %.critedge

23:                                               ; preds = %19
  call void @av_buffer_unref(ptr noundef nonnull %16) #9
  %24 = load ptr, ptr %14, align 8, !tbaa !64
  %.not = icmp eq ptr %24, null
  br i1 %.not, label %.critedge, label %19, !llvm.loop !202

.critedge:                                        ; preds = %19, %23, %6
  call void @av_fifo_freep2(ptr noundef nonnull %14) #9
  %25 = getelementptr inbounds nuw i8, ptr %4, i64 32
  call void @ff_cbs_fragment_free(ptr noundef nonnull %25) #9
  %26 = getelementptr inbounds nuw i8, ptr %4, i64 24
  call void @ff_cbs_close(ptr noundef nonnull %26) #9
  %27 = getelementptr inbounds nuw i8, ptr %4, i64 168
  call void @ff_dovi_ctx_unref(ptr noundef nonnull %27) #9
  call void @llvm.lifetime.end.p0(i64 32, ptr nonnull %2) #9
  ret i32 0
}